---
triple:          'arm64-apple-darwin'
binary-path:     '/Users/k24142kk/myproject/paiza/test'
relocations:
  - { offsetInCU: 0x461B, offset: 0x461B, size: 0x8, addend: 0x0, symName: __ZNSt3__124__put_character_sequenceB8ue170006IcNS_11char_traitsIcEEEERNS_13basic_ostreamIT_T0_EES7_PKS4_m, symObjAddr: 0x21F8, symBinAddr: 0x100003218, symSize: 0x1EC }
  - { offsetInCU: 0x5EDE, offset: 0x5EDE, size: 0x8, addend: 0x0, symName: __ZNSt3__1rsB8ue170006IcNS_11char_traitsIcEENS_9allocatorIcEEEERNS_13basic_istreamIT_T0_EES9_RNS_12basic_stringIS6_S7_T1_EE, symObjAddr: 0x314, symBinAddr: 0x100001334, symSize: 0x31C }
  - { offsetInCU: 0x5FAD, offset: 0x5FAD, size: 0x8, addend: 0x0, symName: __ZNSt3__1lsB8ue170006INS_11char_traitsIcEEEERNS_13basic_ostreamIcT_EES6_PKc, symObjAddr: 0x700, symBinAddr: 0x100001720, symSize: 0x48 }
  - { offsetInCU: 0x5FF3, offset: 0x5FF3, size: 0x8, addend: 0x0, symName: __ZNSt3__14endlB8ue170006IcNS_11char_traitsIcEEEERNS_13basic_ostreamIT_T0_EES7_, symObjAddr: 0x774, symBinAddr: 0x100001794, symSize: 0x58 }
  - { offsetInCU: 0x6033, offset: 0x6033, size: 0x8, addend: 0x0, symName: __ZNSt3__122__make_exception_guardB8ue170006INS_6vectorIxNS_9allocatorIxEEE16__destroy_vectorEEENS_28__exception_guard_exceptionsIT_EES7_, symObjAddr: 0x990, symBinAddr: 0x1000019B0, symSize: 0x40 }
  - { offsetInCU: 0x6068, offset: 0x6068, size: 0x8, addend: 0x0, symName: __ZNSt3__119__allocate_at_leastB8ue170006INS_9allocatorIxEEEENS_19__allocation_resultINS_16allocator_traitsIT_E7pointerEEERS5_m, symObjAddr: 0xD84, symBinAddr: 0x100001DA4, symSize: 0x40 }
  - { offsetInCU: 0x60AB, offset: 0x60AB, size: 0x8, addend: 0x0, symName: __ZNSt3__13minB8ue170006ImEERKT_S3_S3_, symObjAddr: 0xEC0, symBinAddr: 0x100001EE0, symSize: 0x2C }
  - { offsetInCU: 0x62EF, offset: 0x62EF, size: 0x8, addend: 0x0, symName: __ZNSt3__13minB8ue170006ImNS_6__lessIvvEEEERKT_S5_S5_T0_, symObjAddr: 0xF58, symBinAddr: 0x100001F78, symSize: 0x54 }
  - { offsetInCU: 0x638E, offset: 0x638E, size: 0x8, addend: 0x0, symName: __ZNSt3__120__throw_length_errorB8ue170006EPKc, symObjAddr: 0x1034, symBinAddr: 0x100002054, symSize: 0x64 }
  - { offsetInCU: 0x63B8, offset: 0x63B8, size: 0x8, addend: 0x0, symName: __ZNSt3__117__libcpp_allocateB8ue170006Emm, symObjAddr: 0x11A4, symBinAddr: 0x1000021C4, symSize: 0x28 }
  - { offsetInCU: 0x63F5, offset: 0x63F5, size: 0x8, addend: 0x0, symName: __ZNSt3__121__libcpp_operator_newB8ue170006IJmEEEPvDpT_, symObjAddr: 0x11CC, symBinAddr: 0x1000021EC, symSize: 0x24 }
  - { offsetInCU: 0x642E, offset: 0x642E, size: 0x8, addend: 0x0, symName: __ZNSt3__112__to_addressB8ue170006IxEEPT_S2_, symObjAddr: 0x12E8, symBinAddr: 0x100002308, symSize: 0x14 }
  - { offsetInCU: 0x6463, offset: 0x6463, size: 0x8, addend: 0x0, symName: __ZNSt3__119__libcpp_deallocateB8ue170006EPvmm, symObjAddr: 0x17AC, symBinAddr: 0x1000027CC, symSize: 0x30 }
  - { offsetInCU: 0x64AB, offset: 0x64AB, size: 0x8, addend: 0x0, symName: __ZNSt3__127__do_deallocate_handle_sizeB8ue170006IJEEEvPvmDpT_, symObjAddr: 0x17DC, symBinAddr: 0x1000027FC, symSize: 0x28 }
  - { offsetInCU: 0x64E9, offset: 0x64E9, size: 0x8, addend: 0x0, symName: __ZNSt3__124__libcpp_operator_deleteB8ue170006IJPvEEEvDpT_, symObjAddr: 0x1804, symBinAddr: 0x100002824, symSize: 0x24 }
  - { offsetInCU: 0x6AB4, offset: 0x6AB4, size: 0x8, addend: 0x0, symName: __ZNSt3__19use_facetB8ue170006INS_5ctypeIcEEEERKT_RKNS_6localeE, symObjAddr: 0x1B78, symBinAddr: 0x100002B98, symSize: 0x2C }
  - { offsetInCU: 0x70C7, offset: 0x70C7, size: 0x8, addend: 0x0, symName: __ZNSt3__116__pad_and_outputB8ue170006IcNS_11char_traitsIcEEEENS_19ostreambuf_iteratorIT_T0_EES6_PKS4_S8_S8_RNS_8ios_baseES4_, symObjAddr: 0x2434, symBinAddr: 0x100003454, symSize: 0x240 }
  - { offsetInCU: 0x7196, offset: 0x7196, size: 0x8, addend: 0x0, symName: __ZNSt3__112__to_addressB8ue170006IKcEEPT_S3_, symObjAddr: 0x2834, symBinAddr: 0x100003854, symSize: 0x14 }
  - { offsetInCU: 0x71FE, offset: 0x71FE, size: 0x8, addend: 0x0, symName: __ZNSt3__118__constexpr_strlenB8ue170006EPKc, symObjAddr: 0x2A10, symBinAddr: 0x100003A30, symSize: 0x24 }
  - { offsetInCU: 0x74F4, offset: 0x74F4, size: 0x8, addend: 0x0, symName: __ZSt28__throw_bad_array_new_lengthB8ue170006v, symObjAddr: 0x1170, symBinAddr: 0x100002190, symSize: 0x34 }
  - { offsetInCU: 0x8219, offset: 0x8219, size: 0x8, addend: 0x0, symName: __Z7isdigiti, symObjAddr: 0x684, symBinAddr: 0x1000016A4, symSize: 0x28 }
  - { offsetInCU: 0x9C6F, offset: 0x9C6F, size: 0x8, addend: 0x0, symName: _main, symObjAddr: 0x0, symBinAddr: 0x100001020, symSize: 0x2AC }
  - { offsetInCU: 0x9CEC, offset: 0x9CEC, size: 0x8, addend: 0x0, symName: __ZNSt3__16vectorIxNS_9allocatorIxEEEC1EmRKx, symObjAddr: 0x2AC, symBinAddr: 0x1000012CC, symSize: 0x3C }
  - { offsetInCU: 0x9D36, offset: 0x9D36, size: 0x8, addend: 0x0, symName: __ZNSt3__112basic_stringIcNS_11char_traitsIcEENS_9allocatorIcEEEC1B8ue170006Ev, symObjAddr: 0x2E8, symBinAddr: 0x100001308, symSize: 0x2C }
  - { offsetInCU: 0x9D60, offset: 0x9D60, size: 0x8, addend: 0x0, symName: __ZNKSt3__112basic_stringIcNS_11char_traitsIcEENS_9allocatorIcEEE4sizeB8ue170006Ev, symObjAddr: 0x630, symBinAddr: 0x100001650, symSize: 0x54 }
  - { offsetInCU: 0x9D86, offset: 0x9D86, size: 0x8, addend: 0x0, symName: __ZNSt3__112basic_stringIcNS_11char_traitsIcEENS_9allocatorIcEEEixB8ue170006Em, symObjAddr: 0x6AC, symBinAddr: 0x1000016CC, symSize: 0x30 }
  - { offsetInCU: 0x9DBB, offset: 0x9DBB, size: 0x8, addend: 0x0, symName: __ZNSt3__16vectorIxNS_9allocatorIxEEEixB8ue170006Em, symObjAddr: 0x6DC, symBinAddr: 0x1000016FC, symSize: 0x24 }
  - { offsetInCU: 0x9DF2, offset: 0x9DF2, size: 0x8, addend: 0x0, symName: __ZNSt3__113basic_ostreamIcNS_11char_traitsIcEEElsB8ue170006EPFRS3_S4_E, symObjAddr: 0x748, symBinAddr: 0x100001768, symSize: 0x2C }
  - { offsetInCU: 0x9E26, offset: 0x9E26, size: 0x8, addend: 0x0, symName: __ZNSt3__16vectorIxNS_9allocatorIxEEED1B8ue170006Ev, symObjAddr: 0x7CC, symBinAddr: 0x1000017EC, symSize: 0x2C }
  - { offsetInCU: 0x9E4F, offset: 0x9E4F, size: 0x8, addend: 0x0, symName: __Z9__isctypeim, symObjAddr: 0x7F8, symBinAddr: 0x100001818, symSize: 0x80 }
  - { offsetInCU: 0x9E8A, offset: 0x9E8A, size: 0x8, addend: 0x0, symName: __ZNSt3__16vectorIxNS_9allocatorIxEEEC2EmRKx, symObjAddr: 0x878, symBinAddr: 0x100001898, symSize: 0xDC }
  - { offsetInCU: 0x9EF3, offset: 0x9EF3, size: 0x8, addend: 0x0, symName: __ZNSt3__117__compressed_pairIPxNS_9allocatorIxEEEC1B8ue170006IDnNS_18__default_init_tagEEEOT_OT0_, symObjAddr: 0x954, symBinAddr: 0x100001974, symSize: 0x3C }
  - { offsetInCU: 0x9F4B, offset: 0x9F4B, size: 0x8, addend: 0x0, symName: __ZNSt3__16vectorIxNS_9allocatorIxEEE16__destroy_vectorC1B8ue170006ERS3_, symObjAddr: 0x9D0, symBinAddr: 0x1000019F0, symSize: 0x34 }
  - { offsetInCU: 0x9F84, offset: 0x9F84, size: 0x8, addend: 0x0, symName: __ZNSt3__16vectorIxNS_9allocatorIxEEE11__vallocateB8ue170006Em, symObjAddr: 0xA04, symBinAddr: 0x100001A24, symSize: 0xAC }
  - { offsetInCU: 0x9FC8, offset: 0x9FC8, size: 0x8, addend: 0x0, symName: __ZNSt3__16vectorIxNS_9allocatorIxEEE18__construct_at_endEmRKx, symObjAddr: 0xAB0, symBinAddr: 0x100001AD0, symSize: 0xD0 }
  - { offsetInCU: 0xA04A, offset: 0xA04A, size: 0x8, addend: 0x0, symName: __ZNSt3__128__exception_guard_exceptionsINS_6vectorIxNS_9allocatorIxEEE16__destroy_vectorEE10__completeB8ue170006Ev, symObjAddr: 0xB80, symBinAddr: 0x100001BA0, symSize: 0x1C }
  - { offsetInCU: 0xA070, offset: 0xA070, size: 0x8, addend: 0x0, symName: __ZNSt3__128__exception_guard_exceptionsINS_6vectorIxNS_9allocatorIxEEE16__destroy_vectorEED1B8ue170006Ev, symObjAddr: 0xB9C, symBinAddr: 0x100001BBC, symSize: 0x2C }
  - { offsetInCU: 0xA09A, offset: 0xA09A, size: 0x8, addend: 0x0, symName: __ZNSt3__117__compressed_pairIPxNS_9allocatorIxEEEC2B8ue170006IDnNS_18__default_init_tagEEEOT_OT0_, symObjAddr: 0xBC8, symBinAddr: 0x100001BE8, symSize: 0x40 }
  - { offsetInCU: 0xA0F2, offset: 0xA0F2, size: 0x8, addend: 0x0, symName: __ZNSt3__122__compressed_pair_elemIPxLi0ELb0EEC2B8ue170006IDnvEEOT_, symObjAddr: 0xC08, symBinAddr: 0x100001C28, symSize: 0x1C }
  - { offsetInCU: 0xA134, offset: 0xA134, size: 0x8, addend: 0x0, symName: __ZNSt3__122__compressed_pair_elemINS_9allocatorIxEELi1ELb1EEC2B8ue170006ENS_18__default_init_tagE, symObjAddr: 0xC24, symBinAddr: 0x100001C44, symSize: 0x2C }
  - { offsetInCU: 0xA169, offset: 0xA169, size: 0x8, addend: 0x0, symName: __ZNSt3__19allocatorIxEC2B8ue170006Ev, symObjAddr: 0xC50, symBinAddr: 0x100001C70, symSize: 0x2C }
  - { offsetInCU: 0xA193, offset: 0xA193, size: 0x8, addend: 0x0, symName: __ZNSt3__116__non_trivial_ifILb1ENS_9allocatorIxEEEC2B8ue170006Ev, symObjAddr: 0xC7C, symBinAddr: 0x100001C9C, symSize: 0x14 }
  - { offsetInCU: 0xA1BD, offset: 0xA1BD, size: 0x8, addend: 0x0, symName: __ZNSt3__128__exception_guard_exceptionsINS_6vectorIxNS_9allocatorIxEEE16__destroy_vectorEEC1B8ue170006ES5_, symObjAddr: 0xC90, symBinAddr: 0x100001CB0, symSize: 0x34 }
  - { offsetInCU: 0xA1F5, offset: 0xA1F5, size: 0x8, addend: 0x0, symName: __ZNSt3__128__exception_guard_exceptionsINS_6vectorIxNS_9allocatorIxEEE16__destroy_vectorEEC2B8ue170006ES5_, symObjAddr: 0xCC4, symBinAddr: 0x100001CE4, symSize: 0x24 }
  - { offsetInCU: 0xA22D, offset: 0xA22D, size: 0x8, addend: 0x0, symName: __ZNSt3__16vectorIxNS_9allocatorIxEEE16__destroy_vectorC2B8ue170006ERS3_, symObjAddr: 0xCE8, symBinAddr: 0x100001D08, symSize: 0x20 }
  - { offsetInCU: 0xA266, offset: 0xA266, size: 0x8, addend: 0x0, symName: __ZNKSt3__16vectorIxNS_9allocatorIxEEE8max_sizeEv, symObjAddr: 0xD08, symBinAddr: 0x100001D28, symSize: 0x60 }
  - { offsetInCU: 0xA28E, offset: 0xA28E, size: 0x8, addend: 0x0, symName: __ZNKSt3__16vectorIxNS_9allocatorIxEEE20__throw_length_errorB8ue170006Ev, symObjAddr: 0xD68, symBinAddr: 0x100001D88, symSize: 0x1C }
  - { offsetInCU: 0xA2B4, offset: 0xA2B4, size: 0x8, addend: 0x0, symName: __ZNSt3__16vectorIxNS_9allocatorIxEEE7__allocB8ue170006Ev, symObjAddr: 0xDC4, symBinAddr: 0x100001DE4, symSize: 0x28 }
  - { offsetInCU: 0xA2DA, offset: 0xA2DA, size: 0x8, addend: 0x0, symName: __ZNSt3__16vectorIxNS_9allocatorIxEEE9__end_capB8ue170006Ev, symObjAddr: 0xDEC, symBinAddr: 0x100001E0C, symSize: 0x28 }
  - { offsetInCU: 0xA300, offset: 0xA300, size: 0x8, addend: 0x0, symName: __ZNKSt3__16vectorIxNS_9allocatorIxEEE14__annotate_newB8ue170006Em, symObjAddr: 0xE14, symBinAddr: 0x100001E34, symSize: 0xAC }
  - { offsetInCU: 0xA33F, offset: 0xA33F, size: 0x8, addend: 0x0, symName: __ZNSt3__116allocator_traitsINS_9allocatorIxEEE8max_sizeB8ue170006IS2_vEEmRKS2_, symObjAddr: 0xEEC, symBinAddr: 0x100001F0C, symSize: 0x24 }
  - { offsetInCU: 0xA36D, offset: 0xA36D, size: 0x8, addend: 0x0, symName: __ZNKSt3__16vectorIxNS_9allocatorIxEEE7__allocB8ue170006Ev, symObjAddr: 0xF10, symBinAddr: 0x100001F30, symSize: 0x28 }
  - { offsetInCU: 0xA393, offset: 0xA393, size: 0x8, addend: 0x0, symName: __ZNSt3__114numeric_limitsIlE3maxB8ue170006Ev, symObjAddr: 0xF38, symBinAddr: 0x100001F58, symSize: 0x14 }
  - { offsetInCU: 0xA3BB, offset: 0xA3BB, size: 0x8, addend: 0x0, symName: __ZNKSt3__16__lessIvvEclB8ue170006ImmEEbRKT_RKT0_, symObjAddr: 0xFAC, symBinAddr: 0x100001FCC, symSize: 0x34 }
  - { offsetInCU: 0xA40F, offset: 0xA40F, size: 0x8, addend: 0x0, symName: __ZNKSt3__19allocatorIxE8max_sizeB8ue170006Ev, symObjAddr: 0xFE0, symBinAddr: 0x100002000, symSize: 0x14 }
  - { offsetInCU: 0xA435, offset: 0xA435, size: 0x8, addend: 0x0, symName: __ZNKSt3__117__compressed_pairIPxNS_9allocatorIxEEE6secondB8ue170006Ev, symObjAddr: 0xFF4, symBinAddr: 0x100002014, symSize: 0x24 }
  - { offsetInCU: 0xA45B, offset: 0xA45B, size: 0x8, addend: 0x0, symName: __ZNKSt3__122__compressed_pair_elemINS_9allocatorIxEELi1ELb1EE5__getB8ue170006Ev, symObjAddr: 0x1018, symBinAddr: 0x100002038, symSize: 0x14 }
  - { offsetInCU: 0xA481, offset: 0xA481, size: 0x8, addend: 0x0, symName: __ZNSt3__123__libcpp_numeric_limitsIlLb1EE3maxB8ue170006Ev, symObjAddr: 0x102C, symBinAddr: 0x10000204C, symSize: 0x8 }
  - { offsetInCU: 0xA495, offset: 0xA495, size: 0x8, addend: 0x0, symName: __ZNSt12length_errorC1B8ue170006EPKc, symObjAddr: 0x1098, symBinAddr: 0x1000020B8, symSize: 0x34 }
  - { offsetInCU: 0xA4CD, offset: 0xA4CD, size: 0x8, addend: 0x0, symName: __ZNSt12length_errorC2B8ue170006EPKc, symObjAddr: 0x10CC, symBinAddr: 0x1000020EC, symSize: 0x4C }
  - { offsetInCU: 0xA505, offset: 0xA505, size: 0x8, addend: 0x0, symName: __ZNSt3__19allocatorIxE8allocateB8ue170006Em, symObjAddr: 0x1118, symBinAddr: 0x100002138, symSize: 0x58 }
  - { offsetInCU: 0xA539, offset: 0xA539, size: 0x8, addend: 0x0, symName: __ZNSt3__117__compressed_pairIPxNS_9allocatorIxEEE6secondB8ue170006Ev, symObjAddr: 0x11F0, symBinAddr: 0x100002210, symSize: 0x24 }
  - { offsetInCU: 0xA55F, offset: 0xA55F, size: 0x8, addend: 0x0, symName: __ZNSt3__122__compressed_pair_elemINS_9allocatorIxEELi1ELb1EE5__getB8ue170006Ev, symObjAddr: 0x1214, symBinAddr: 0x100002234, symSize: 0x14 }
  - { offsetInCU: 0xA585, offset: 0xA585, size: 0x8, addend: 0x0, symName: __ZNSt3__117__compressed_pairIPxNS_9allocatorIxEEE5firstB8ue170006Ev, symObjAddr: 0x1228, symBinAddr: 0x100002248, symSize: 0x24 }
  - { offsetInCU: 0xA5AB, offset: 0xA5AB, size: 0x8, addend: 0x0, symName: __ZNSt3__122__compressed_pair_elemIPxLi0ELb0EE5__getB8ue170006Ev, symObjAddr: 0x124C, symBinAddr: 0x10000226C, symSize: 0x14 }
  - { offsetInCU: 0xA5D1, offset: 0xA5D1, size: 0x8, addend: 0x0, symName: __ZNKSt3__16vectorIxNS_9allocatorIxEEE31__annotate_contiguous_containerB8ue170006EPKvS5_S5_S5_, symObjAddr: 0x1260, symBinAddr: 0x100002280, symSize: 0x20 }
  - { offsetInCU: 0xA627, offset: 0xA627, size: 0x8, addend: 0x0, symName: __ZNKSt3__16vectorIxNS_9allocatorIxEEE4dataB8ue170006Ev, symObjAddr: 0x1280, symBinAddr: 0x1000022A0, symSize: 0x28 }
  - { offsetInCU: 0xA64D, offset: 0xA64D, size: 0x8, addend: 0x0, symName: __ZNKSt3__16vectorIxNS_9allocatorIxEEE8capacityB8ue170006Ev, symObjAddr: 0x12A8, symBinAddr: 0x1000022C8, symSize: 0x40 }
  - { offsetInCU: 0xA673, offset: 0xA673, size: 0x8, addend: 0x0, symName: __ZNKSt3__16vectorIxNS_9allocatorIxEEE9__end_capB8ue170006Ev, symObjAddr: 0x12FC, symBinAddr: 0x10000231C, symSize: 0x28 }
  - { offsetInCU: 0xA699, offset: 0xA699, size: 0x8, addend: 0x0, symName: __ZNKSt3__117__compressed_pairIPxNS_9allocatorIxEEE5firstB8ue170006Ev, symObjAddr: 0x1324, symBinAddr: 0x100002344, symSize: 0x24 }
  - { offsetInCU: 0xA6BF, offset: 0xA6BF, size: 0x8, addend: 0x0, symName: __ZNKSt3__122__compressed_pair_elemIPxLi0ELb0EE5__getB8ue170006Ev, symObjAddr: 0x1348, symBinAddr: 0x100002368, symSize: 0x14 }
  - { offsetInCU: 0xA6FE, offset: 0xA6FE, size: 0x8, addend: 0x0, symName: __ZNSt3__16vectorIxNS_9allocatorIxEEE21_ConstructTransactionC1B8ue170006ERS3_m, symObjAddr: 0x135C, symBinAddr: 0x10000237C, symSize: 0x3C }
  - { offsetInCU: 0xA746, offset: 0xA746, size: 0x8, addend: 0x0, symName: __ZNSt3__116allocator_traitsINS_9allocatorIxEEE9constructB8ue170006IxJRKxEvEEvRS2_PT_DpOT0_, symObjAddr: 0x1398, symBinAddr: 0x1000023B8, symSize: 0x34 }
  - { offsetInCU: 0xA79D, offset: 0xA79D, size: 0x8, addend: 0x0, symName: __ZNSt3__16vectorIxNS_9allocatorIxEEE21_ConstructTransactionD1B8ue170006Ev, symObjAddr: 0x13CC, symBinAddr: 0x1000023EC, symSize: 0x2C }
  - { offsetInCU: 0xA7C7, offset: 0xA7C7, size: 0x8, addend: 0x0, symName: __ZNSt3__16vectorIxNS_9allocatorIxEEE21_ConstructTransactionC2B8ue170006ERS3_m, symObjAddr: 0x13F8, symBinAddr: 0x100002418, symSize: 0x44 }
  - { offsetInCU: 0xA80F, offset: 0xA80F, size: 0x8, addend: 0x0, symName: __ZNSt3__19allocatorIxE9constructB8ue170006IxJRKxEEEvPT_DpOT0_, symObjAddr: 0x143C, symBinAddr: 0x10000245C, symSize: 0x28 }
  - { offsetInCU: 0xA865, offset: 0xA865, size: 0x8, addend: 0x0, symName: __ZNSt3__16vectorIxNS_9allocatorIxEEE21_ConstructTransactionD2B8ue170006Ev, symObjAddr: 0x1464, symBinAddr: 0x100002484, symSize: 0x20 }
  - { offsetInCU: 0xA88F, offset: 0xA88F, size: 0x8, addend: 0x0, symName: __ZNSt3__128__exception_guard_exceptionsINS_6vectorIxNS_9allocatorIxEEE16__destroy_vectorEED2B8ue170006Ev, symObjAddr: 0x1484, symBinAddr: 0x1000024A4, symSize: 0x50 }
  - { offsetInCU: 0xA8B9, offset: 0xA8B9, size: 0x8, addend: 0x0, symName: __ZNSt3__16vectorIxNS_9allocatorIxEEE16__destroy_vectorclB8ue170006Ev, symObjAddr: 0x14D4, symBinAddr: 0x1000024F4, symSize: 0x90 }
  - { offsetInCU: 0xA8DF, offset: 0xA8DF, size: 0x8, addend: 0x0, symName: __ZNSt3__16vectorIxNS_9allocatorIxEEE7__clearB8ue170006Ev, symObjAddr: 0x1564, symBinAddr: 0x100002584, symSize: 0x28 }
  - { offsetInCU: 0xA905, offset: 0xA905, size: 0x8, addend: 0x0, symName: __ZNKSt3__16vectorIxNS_9allocatorIxEEE17__annotate_deleteB8ue170006Ev, symObjAddr: 0x158C, symBinAddr: 0x1000025AC, symSize: 0xB8 }
  - { offsetInCU: 0xA92B, offset: 0xA92B, size: 0x8, addend: 0x0, symName: __ZNSt3__116allocator_traitsINS_9allocatorIxEEE10deallocateB8ue170006ERS2_Pxm, symObjAddr: 0x1644, symBinAddr: 0x100002664, symSize: 0x34 }
  - { offsetInCU: 0xA96D, offset: 0xA96D, size: 0x8, addend: 0x0, symName: __ZNSt3__16vectorIxNS_9allocatorIxEEE22__base_destruct_at_endB8ue170006EPx, symObjAddr: 0x1678, symBinAddr: 0x100002698, symSize: 0x8C }
  - { offsetInCU: 0xA9B1, offset: 0xA9B1, size: 0x8, addend: 0x0, symName: __ZNSt3__116allocator_traitsINS_9allocatorIxEEE7destroyB8ue170006IxvEEvRS2_PT_, symObjAddr: 0x1704, symBinAddr: 0x100002724, symSize: 0x2C }
  - { offsetInCU: 0xA9EE, offset: 0xA9EE, size: 0x8, addend: 0x0, symName: __ZNSt3__19allocatorIxE7destroyB8ue170006EPx, symObjAddr: 0x1730, symBinAddr: 0x100002750, symSize: 0x14 }
  - { offsetInCU: 0xAA22, offset: 0xAA22, size: 0x8, addend: 0x0, symName: __ZNKSt3__16vectorIxNS_9allocatorIxEEE4sizeB8ue170006Ev, symObjAddr: 0x1744, symBinAddr: 0x100002764, symSize: 0x28 }
  - { offsetInCU: 0xAA48, offset: 0xAA48, size: 0x8, addend: 0x0, symName: __ZNSt3__19allocatorIxE10deallocateB8ue170006EPxm, symObjAddr: 0x176C, symBinAddr: 0x10000278C, symSize: 0x40 }
  - { offsetInCU: 0xAA8A, offset: 0xAA8A, size: 0x8, addend: 0x0, symName: __ZNSt3__16vectorIxNS_9allocatorIxEEED2B8ue170006Ev, symObjAddr: 0x1828, symBinAddr: 0x100002848, symSize: 0x40 }
  - { offsetInCU: 0xAAB4, offset: 0xAAB4, size: 0x8, addend: 0x0, symName: __ZNSt3__112basic_stringIcNS_11char_traitsIcEENS_9allocatorIcEEEC2B8ue170006Ev, symObjAddr: 0x1868, symBinAddr: 0x100002888, symSize: 0x48 }
  - { offsetInCU: 0xAADE, offset: 0xAADE, size: 0x8, addend: 0x0, symName: __ZNSt3__117__compressed_pairINS_12basic_stringIcNS_11char_traitsIcEENS_9allocatorIcEEE5__repES5_EC1B8ue170006INS_18__default_init_tagESA_EEOT_OT0_, symObjAddr: 0x18B0, symBinAddr: 0x1000028D0, symSize: 0x3C }
  - { offsetInCU: 0xAB36, offset: 0xAB36, size: 0x8, addend: 0x0, symName: __ZNSt3__112basic_stringIcNS_11char_traitsIcEENS_9allocatorIcEEE14__default_initB8ue170006Ev, symObjAddr: 0x18EC, symBinAddr: 0x10000290C, symSize: 0x40 }
  - { offsetInCU: 0xAB5C, offset: 0xAB5C, size: 0x8, addend: 0x0, symName: __ZNSt3__117__compressed_pairINS_12basic_stringIcNS_11char_traitsIcEENS_9allocatorIcEEE5__repES5_EC2B8ue170006INS_18__default_init_tagESA_EEOT_OT0_, symObjAddr: 0x192C, symBinAddr: 0x10000294C, symSize: 0x3C }
  - { offsetInCU: 0xABB4, offset: 0xABB4, size: 0x8, addend: 0x0, symName: __ZNSt3__122__compressed_pair_elemINS_12basic_stringIcNS_11char_traitsIcEENS_9allocatorIcEEE5__repELi0ELb0EEC2B8ue170006ENS_18__default_init_tagE, symObjAddr: 0x1968, symBinAddr: 0x100002988, symSize: 0x14 }
  - { offsetInCU: 0xABE9, offset: 0xABE9, size: 0x8, addend: 0x0, symName: __ZNSt3__122__compressed_pair_elemINS_9allocatorIcEELi1ELb1EEC2B8ue170006ENS_18__default_init_tagE, symObjAddr: 0x197C, symBinAddr: 0x10000299C, symSize: 0x2C }
  - { offsetInCU: 0xAC1E, offset: 0xAC1E, size: 0x8, addend: 0x0, symName: __ZNSt3__19allocatorIcEC2B8ue170006Ev, symObjAddr: 0x19A8, symBinAddr: 0x1000029C8, symSize: 0x2C }
  - { offsetInCU: 0xAC48, offset: 0xAC48, size: 0x8, addend: 0x0, symName: __ZNSt3__116__non_trivial_ifILb1ENS_9allocatorIcEEEC2B8ue170006Ev, symObjAddr: 0x19D4, symBinAddr: 0x1000029F4, symSize: 0x14 }
  - { offsetInCU: 0xAC72, offset: 0xAC72, size: 0x8, addend: 0x0, symName: __ZNSt3__117__compressed_pairINS_12basic_stringIcNS_11char_traitsIcEENS_9allocatorIcEEE5__repES5_E5firstB8ue170006Ev, symObjAddr: 0x19E8, symBinAddr: 0x100002A08, symSize: 0x24 }
  - { offsetInCU: 0xAC98, offset: 0xAC98, size: 0x8, addend: 0x0, symName: __ZNSt3__122__compressed_pair_elemINS_12basic_stringIcNS_11char_traitsIcEENS_9allocatorIcEEE5__repELi0ELb0EE5__getB8ue170006Ev, symObjAddr: 0x1A0C, symBinAddr: 0x100002A2C, symSize: 0x14 }
  - { offsetInCU: 0xAD60, offset: 0xAD60, size: 0x8, addend: 0x0, symName: __ZNKSt3__113basic_istreamIcNS_11char_traitsIcEEE6sentrycvbB8ue170006Ev, symObjAddr: 0x1A20, symBinAddr: 0x100002A40, symSize: 0x1C }
  - { offsetInCU: 0xAD86, offset: 0xAD86, size: 0x8, addend: 0x0, symName: __ZNSt3__112basic_stringIcNS_11char_traitsIcEENS_9allocatorIcEEE5clearB8ue170006Ev, symObjAddr: 0x1A3C, symBinAddr: 0x100002A5C, symSize: 0x78 }
  - { offsetInCU: 0xADAE, offset: 0xADAE, size: 0x8, addend: 0x0, symName: __ZNKSt3__18ios_base5widthB8ue170006Ev, symObjAddr: 0x1AB4, symBinAddr: 0x100002AD4, symSize: 0x18 }
  - { offsetInCU: 0xADD6, offset: 0xADD6, size: 0x8, addend: 0x0, symName: __ZNKSt3__112basic_stringIcNS_11char_traitsIcEENS_9allocatorIcEEE8max_sizeB8ue170006Ev, symObjAddr: 0x1ACC, symBinAddr: 0x100002AEC, symSize: 0xAC }
  - { offsetInCU: 0xAE29, offset: 0xAE29, size: 0x8, addend: 0x0, symName: __ZNKSt3__19basic_iosIcNS_11char_traitsIcEEE5rdbufB8ue170006Ev, symObjAddr: 0x1BA4, symBinAddr: 0x100002BC4, symSize: 0x24 }
  - { offsetInCU: 0xAE51, offset: 0xAE51, size: 0x8, addend: 0x0, symName: __ZNSt3__115basic_streambufIcNS_11char_traitsIcEEE5sgetcB8ue170006Ev, symObjAddr: 0x1BC8, symBinAddr: 0x100002BE8, symSize: 0x70 }
  - { offsetInCU: 0xAE77, offset: 0xAE77, size: 0x8, addend: 0x0, symName: __ZNSt3__111char_traitsIcE11eq_int_typeB8ue170006Eii, symObjAddr: 0x1C38, symBinAddr: 0x100002C58, symSize: 0x28 }
  - { offsetInCU: 0xAEAA, offset: 0xAEAA, size: 0x8, addend: 0x0, symName: __ZNSt3__111char_traitsIcE3eofB8ue170006Ev, symObjAddr: 0x1C60, symBinAddr: 0x100002C80, symSize: 0x8 }
  - { offsetInCU: 0xAEBE, offset: 0xAEBE, size: 0x8, addend: 0x0, symName: __ZNSt3__111char_traitsIcE12to_char_typeB8ue170006Ei, symObjAddr: 0x1C68, symBinAddr: 0x100002C88, symSize: 0x18 }
  - { offsetInCU: 0xAF0E, offset: 0xAF0E, size: 0x8, addend: 0x0, symName: __ZNKSt3__15ctypeIcE2isB8ue170006Ejc, symObjAddr: 0x1C80, symBinAddr: 0x100002CA0, symSize: 0x7C }
  - { offsetInCU: 0xAF52, offset: 0xAF52, size: 0x8, addend: 0x0, symName: __ZNSt3__115basic_streambufIcNS_11char_traitsIcEEE6sbumpcB8ue170006Ev, symObjAddr: 0x1CFC, symBinAddr: 0x100002D1C, symSize: 0x78 }
  - { offsetInCU: 0xAF78, offset: 0xAF78, size: 0x8, addend: 0x0, symName: __ZNSt3__18ios_base5widthB8ue170006El, symObjAddr: 0x1D74, symBinAddr: 0x100002D94, symSize: 0x2C }
  - { offsetInCU: 0xAFBE, offset: 0xAFBE, size: 0x8, addend: 0x0, symName: __ZNSt3__18ios_base18__setstate_nothrowB8ue170006Ej, symObjAddr: 0x1DA0, symBinAddr: 0x100002DC0, symSize: 0x64 }
  - { offsetInCU: 0xAFF3, offset: 0xAFF3, size: 0x8, addend: 0x0, symName: __ZNKSt3__19basic_iosIcNS_11char_traitsIcEEE10exceptionsB8ue170006Ev, symObjAddr: 0x1E04, symBinAddr: 0x100002E24, symSize: 0x24 }
  - { offsetInCU: 0xB019, offset: 0xB019, size: 0x8, addend: 0x0, symName: __ZNSt3__19basic_iosIcNS_11char_traitsIcEEE8setstateB8ue170006Ej, symObjAddr: 0x1E28, symBinAddr: 0x100002E48, symSize: 0x2C }
  - { offsetInCU: 0xB04E, offset: 0xB04E, size: 0x8, addend: 0x0, symName: __ZNKSt3__112basic_stringIcNS_11char_traitsIcEENS_9allocatorIcEEE9__is_longB8ue170006Ev, symObjAddr: 0x1E54, symBinAddr: 0x100002E74, symSize: 0x38 }
  - { offsetInCU: 0xB074, offset: 0xB074, size: 0x8, addend: 0x0, symName: __ZNSt3__111char_traitsIcE6assignB8ue170006ERcRKc, symObjAddr: 0x1E8C, symBinAddr: 0x100002EAC, symSize: 0x24 }
  - { offsetInCU: 0xB0A5, offset: 0xB0A5, size: 0x8, addend: 0x0, symName: __ZNSt3__112basic_stringIcNS_11char_traitsIcEENS_9allocatorIcEEE18__get_long_pointerB8ue170006Ev, symObjAddr: 0x1EB0, symBinAddr: 0x100002ED0, symSize: 0x28 }
  - { offsetInCU: 0xB0CB, offset: 0xB0CB, size: 0x8, addend: 0x0, symName: __ZNSt3__112basic_stringIcNS_11char_traitsIcEENS_9allocatorIcEEE15__set_long_sizeB8ue170006Em, symObjAddr: 0x1ED8, symBinAddr: 0x100002EF8, symSize: 0x38 }
  - { offsetInCU: 0xB100, offset: 0xB100, size: 0x8, addend: 0x0, symName: __ZNSt3__112basic_stringIcNS_11char_traitsIcEENS_9allocatorIcEEE19__get_short_pointerB8ue170006Ev, symObjAddr: 0x1F10, symBinAddr: 0x100002F30, symSize: 0x28 }
  - { offsetInCU: 0xB126, offset: 0xB126, size: 0x8, addend: 0x0, symName: __ZNSt3__112basic_stringIcNS_11char_traitsIcEENS_9allocatorIcEEE16__set_short_sizeB8ue170006Em, symObjAddr: 0x1F38, symBinAddr: 0x100002F58, symSize: 0x78 }
  - { offsetInCU: 0xB15B, offset: 0xB15B, size: 0x8, addend: 0x0, symName: __ZNKSt3__117__compressed_pairINS_12basic_stringIcNS_11char_traitsIcEENS_9allocatorIcEEE5__repES5_E5firstB8ue170006Ev, symObjAddr: 0x1FB0, symBinAddr: 0x100002FD0, symSize: 0x24 }
  - { offsetInCU: 0xB181, offset: 0xB181, size: 0x8, addend: 0x0, symName: __ZNKSt3__122__compressed_pair_elemINS_12basic_stringIcNS_11char_traitsIcEENS_9allocatorIcEEE5__repELi0ELb0EE5__getB8ue170006Ev, symObjAddr: 0x1FD4, symBinAddr: 0x100002FF4, symSize: 0x14 }
  - { offsetInCU: 0xB1A7, offset: 0xB1A7, size: 0x8, addend: 0x0, symName: __ZNSt3__114pointer_traitsIPcE10pointer_toB8ue170006ERc, symObjAddr: 0x1FE8, symBinAddr: 0x100003008, symSize: 0x14 }
  - { offsetInCU: 0xB1D4, offset: 0xB1D4, size: 0x8, addend: 0x0, symName: __ZNSt3__116allocator_traitsINS_9allocatorIcEEE8max_sizeB8ue170006IS2_vEEmRKS2_, symObjAddr: 0x1FFC, symBinAddr: 0x10000301C, symSize: 0x24 }
  - { offsetInCU: 0xB202, offset: 0xB202, size: 0x8, addend: 0x0, symName: __ZNKSt3__112basic_stringIcNS_11char_traitsIcEENS_9allocatorIcEEE7__allocB8ue170006Ev, symObjAddr: 0x2020, symBinAddr: 0x100003040, symSize: 0x24 }
  - { offsetInCU: 0xB228, offset: 0xB228, size: 0x8, addend: 0x0, symName: __ZNSt3__114numeric_limitsImE3maxB8ue170006Ev, symObjAddr: 0x2044, symBinAddr: 0x100003064, symSize: 0x14 }
  - { offsetInCU: 0xB23C, offset: 0xB23C, size: 0x8, addend: 0x0, symName: __ZNKSt3__19allocatorIcE8max_sizeB8ue170006Ev, symObjAddr: 0x2058, symBinAddr: 0x100003078, symSize: 0x14 }
  - { offsetInCU: 0xB262, offset: 0xB262, size: 0x8, addend: 0x0, symName: __ZNKSt3__117__compressed_pairINS_12basic_stringIcNS_11char_traitsIcEENS_9allocatorIcEEE5__repES5_E6secondB8ue170006Ev, symObjAddr: 0x206C, symBinAddr: 0x10000308C, symSize: 0x24 }
  - { offsetInCU: 0xB288, offset: 0xB288, size: 0x8, addend: 0x0, symName: __ZNKSt3__122__compressed_pair_elemINS_9allocatorIcEELi1ELb1EE5__getB8ue170006Ev, symObjAddr: 0x2090, symBinAddr: 0x1000030B0, symSize: 0x14 }
  - { offsetInCU: 0xB2AE, offset: 0xB2AE, size: 0x8, addend: 0x0, symName: __ZNSt3__123__libcpp_numeric_limitsImLb1EE3maxB8ue170006Ev, symObjAddr: 0x20A4, symBinAddr: 0x1000030C4, symSize: 0x8 }
  - { offsetInCU: 0xB2C2, offset: 0xB2C2, size: 0x8, addend: 0x0, symName: __ZNKSt3__18ios_base5rdbufB8ue170006Ev, symObjAddr: 0x20AC, symBinAddr: 0x1000030CC, symSize: 0x18 }
  - { offsetInCU: 0xB2E8, offset: 0xB2E8, size: 0x8, addend: 0x0, symName: __ZNSt3__111char_traitsIcE11to_int_typeB8ue170006Ec, symObjAddr: 0x20C4, symBinAddr: 0x1000030E4, symSize: 0x14 }
  - { offsetInCU: 0xB30B, offset: 0xB30B, size: 0x8, addend: 0x0, symName: __Z7isasciii, symObjAddr: 0x20D8, symBinAddr: 0x1000030F8, symSize: 0x24 }
  - { offsetInCU: 0xB338, offset: 0xB338, size: 0x8, addend: 0x0, symName: __ZNKSt3__18ios_base10exceptionsB8ue170006Ev, symObjAddr: 0x20FC, symBinAddr: 0x10000311C, symSize: 0x18 }
  - { offsetInCU: 0xB360, offset: 0xB360, size: 0x8, addend: 0x0, symName: __ZNSt3__18ios_base8setstateB8ue170006Ej, symObjAddr: 0x2114, symBinAddr: 0x100003134, symSize: 0x34 }
  - { offsetInCU: 0xB397, offset: 0xB397, size: 0x8, addend: 0x0, symName: __ZNKSt3__112basic_stringIcNS_11char_traitsIcEENS_9allocatorIcEEE15__get_long_sizeB8ue170006Ev, symObjAddr: 0x2148, symBinAddr: 0x100003168, symSize: 0x28 }
  - { offsetInCU: 0xB3BD, offset: 0xB3BD, size: 0x8, addend: 0x0, symName: __ZNKSt3__112basic_stringIcNS_11char_traitsIcEENS_9allocatorIcEEE16__get_short_sizeB8ue170006Ev, symObjAddr: 0x2170, symBinAddr: 0x100003190, symSize: 0x34 }
  - { offsetInCU: 0xB3E3, offset: 0xB3E3, size: 0x8, addend: 0x0, symName: __ZNSt3__112basic_stringIcNS_11char_traitsIcEENS_9allocatorIcEEE13__get_pointerB8ue170006Ev, symObjAddr: 0x21A4, symBinAddr: 0x1000031C4, symSize: 0x54 }
  - { offsetInCU: 0xB409, offset: 0xB409, size: 0x8, addend: 0x0, symName: __ZNSt3__111char_traitsIcE6lengthB8ue170006EPKc, symObjAddr: 0x23E4, symBinAddr: 0x100003404, symSize: 0x34 }
  - { offsetInCU: 0xB44A, offset: 0xB44A, size: 0x8, addend: 0x0, symName: __ZNKSt3__113basic_ostreamIcNS_11char_traitsIcEEE6sentrycvbB8ue170006Ev, symObjAddr: 0x2418, symBinAddr: 0x100003438, symSize: 0x1C }
  - { offsetInCU: 0xB470, offset: 0xB470, size: 0x8, addend: 0x0, symName: __ZNSt3__119ostreambuf_iteratorIcNS_11char_traitsIcEEEC1B8ue170006ERNS_13basic_ostreamIcS2_EE, symObjAddr: 0x2674, symBinAddr: 0x100003694, symSize: 0x34 }
  - { offsetInCU: 0xB4A8, offset: 0xB4A8, size: 0x8, addend: 0x0, symName: __ZNKSt3__18ios_base5flagsB8ue170006Ev, symObjAddr: 0x26A8, symBinAddr: 0x1000036C8, symSize: 0x18 }
  - { offsetInCU: 0xB4D0, offset: 0xB4D0, size: 0x8, addend: 0x0, symName: __ZNKSt3__19basic_iosIcNS_11char_traitsIcEEE4fillB8ue170006Ev, symObjAddr: 0x26C0, symBinAddr: 0x1000036E0, symSize: 0x64 }
  - { offsetInCU: 0xB4F8, offset: 0xB4F8, size: 0x8, addend: 0x0, symName: __ZNKSt3__119ostreambuf_iteratorIcNS_11char_traitsIcEEE6failedB8ue170006Ev, symObjAddr: 0x2724, symBinAddr: 0x100003744, symSize: 0x24 }
  - { offsetInCU: 0xB51E, offset: 0xB51E, size: 0x8, addend: 0x0, symName: __ZNSt3__115basic_streambufIcNS_11char_traitsIcEEE5sputnB8ue170006EPKcl, symObjAddr: 0x2748, symBinAddr: 0x100003768, symSize: 0x3C }
  - { offsetInCU: 0xB560, offset: 0xB560, size: 0x8, addend: 0x0, symName: __ZNSt3__112basic_stringIcNS_11char_traitsIcEENS_9allocatorIcEEEC1B8ue170006Emc, symObjAddr: 0x2784, symBinAddr: 0x1000037A4, symSize: 0x3C }
  - { offsetInCU: 0xB5A8, offset: 0xB5A8, size: 0x8, addend: 0x0, symName: __ZNKSt3__112basic_stringIcNS_11char_traitsIcEENS_9allocatorIcEEE4dataB8ue170006Ev, symObjAddr: 0x27C0, symBinAddr: 0x1000037E0, symSize: 0x28 }
  - { offsetInCU: 0xB5CE, offset: 0xB5CE, size: 0x8, addend: 0x0, symName: __ZNSt3__112basic_stringIcNS_11char_traitsIcEENS_9allocatorIcEEEC2B8ue170006Emc, symObjAddr: 0x27E8, symBinAddr: 0x100003808, symSize: 0x4C }
  - { offsetInCU: 0xB616, offset: 0xB616, size: 0x8, addend: 0x0, symName: __ZNKSt3__112basic_stringIcNS_11char_traitsIcEENS_9allocatorIcEEE13__get_pointerB8ue170006Ev, symObjAddr: 0x2848, symBinAddr: 0x100003868, symSize: 0x54 }
  - { offsetInCU: 0xB63C, offset: 0xB63C, size: 0x8, addend: 0x0, symName: __ZNKSt3__112basic_stringIcNS_11char_traitsIcEENS_9allocatorIcEEE18__get_long_pointerB8ue170006Ev, symObjAddr: 0x289C, symBinAddr: 0x1000038BC, symSize: 0x28 }
  - { offsetInCU: 0xB662, offset: 0xB662, size: 0x8, addend: 0x0, symName: __ZNKSt3__112basic_stringIcNS_11char_traitsIcEENS_9allocatorIcEEE19__get_short_pointerB8ue170006Ev, symObjAddr: 0x28C4, symBinAddr: 0x1000038E4, symSize: 0x28 }
  - { offsetInCU: 0xB688, offset: 0xB688, size: 0x8, addend: 0x0, symName: __ZNSt3__114pointer_traitsIPKcE10pointer_toB8ue170006ERS1_, symObjAddr: 0x28EC, symBinAddr: 0x10000390C, symSize: 0x14 }
  - { offsetInCU: 0xB6AB, offset: 0xB6AB, size: 0x8, addend: 0x0, symName: __ZNSt3__119ostreambuf_iteratorIcNS_11char_traitsIcEEEC2B8ue170006ERNS_13basic_ostreamIcS2_EE, symObjAddr: 0x2900, symBinAddr: 0x100003920, symSize: 0x54 }
  - { offsetInCU: 0xB6E3, offset: 0xB6E3, size: 0x8, addend: 0x0, symName: __ZNKSt3__19basic_iosIcNS_11char_traitsIcEEE5widenB8ue170006Ec, symObjAddr: 0x2954, symBinAddr: 0x100003974, symSize: 0x84 }
  - { offsetInCU: 0xB71A, offset: 0xB71A, size: 0x8, addend: 0x0, symName: __ZNKSt3__15ctypeIcE5widenB8ue170006Ec, symObjAddr: 0x29D8, symBinAddr: 0x1000039F8, symSize: 0x38 }
...
